target datalayout = "e-m:e-p270:32:32-p271:32:32-p272:64:64-i64:64-i128:128-f80:128-n8:16:32:64-S128"
target triple = "x86_64-pc-linux-gnu"

%struct.ParallelApplyWorkerInfo = type { ptr, ptr, ptr, i8, i8, ptr }
%struct.ParallelApplyWorkerShared = type { i8, i32, i32, i16, i32, %struct.pg_atomic_uint32, i64, i32, %struct.FileSet }
%struct.pg_atomic_uint32 = type { i32 }
%struct.FileSet = type { i32, i32, i32, [8 x i32] }
%struct.LogicalRepWorker = type { i32, i64, i8, i16, ptr, i32, i32, i32, i32, i8, i64, i8, ptr, i32, i8, i64, i64, i64, i64, i64 }

@.str.2 = private unnamed_addr constant [22 x i8] c"applyparallelworker.c\00", align 1
@MyLogicalRepWorker = external global ptr, align 8
@.str.8 = private unnamed_addr constant [105 x i8] c"logical replication apply worker will serialize the remaining changes of remote transaction %u to a file\00", align 1
@__func__.pa_switch_to_partial_serialize = private unnamed_addr constant [31 x i8] c"pa_switch_to_partial_serialize\00", align 1
@__func__.pa_set_fileset_state = private unnamed_addr constant [21 x i8] c"pa_set_fileset_state\00", align 1

; Function Attrs: inlinehint nounwind uwtable
define internal i32 @tas(ptr noundef %0) #5 {
  %2 = alloca ptr, align 8
  %3 = alloca i8, align 1
  store ptr %0, ptr %2, align 8
  call void @llvm.lifetime.start.p0(i64 1, ptr %3) #9
  store i8 1, ptr %3, align 1
  %4 = load i8, ptr %3, align 1
  %5 = load ptr, ptr %2, align 8
  %6 = call i8 asm sideeffect "\09lock\09\09\09\0A\09xchgb\09$0,$1\09\0A", "=q,=*m,0,*m,~{memory},~{cc},~{dirflag},~{fpsr},~{flags}"(ptr elementtype(i8) %5, i8 %4, ptr elementtype(i8) %5) #9, !srcloc !10
  store i8 %6, ptr %3, align 1
  %7 = load i8, ptr %3, align 1
  %8 = zext i8 %7 to i32
  call void @llvm.lifetime.end.p0(i64 1, ptr %3) #9
  ret i32 %8
}

; Function Attrs: nounwind uwtable
define dso_local void @pa_set_fileset_state(ptr noundef %0, i32 noundef %1) #0 {
  %3 = alloca ptr, align 8
  %4 = alloca i32, align 4
  store ptr %0, ptr %3, align 8
  store i32 %1, ptr %4, align 4
  %5 = load ptr, ptr %3, align 8
  %6 = getelementptr inbounds nuw %struct.ParallelApplyWorkerShared, ptr %5, i32 0, i32 0
  %7 = call i32 @tas(ptr noundef %6)
  %8 = icmp ne i32 %7, 0
  br i1 %8, label %9, label %13

9:                                                ; preds = %2
  %10 = load ptr, ptr %3, align 8
  %11 = getelementptr inbounds nuw %struct.ParallelApplyWorkerShared, ptr %10, i32 0, i32 0
  %12 = call i32 @s_lock(ptr noundef %11, ptr noundef @.str.2, i32 noundef 1501, ptr noundef @__func__.pa_set_fileset_state)
  br label %14

13:                                               ; preds = %2
  br label %14

14:                                               ; preds = %13, %9
  %15 = load i32, ptr %4, align 4
  %16 = load ptr, ptr %3, align 8
  %17 = getelementptr inbounds nuw %struct.ParallelApplyWorkerShared, ptr %16, i32 0, i32 7
  store i32 %15, ptr %17, align 8
  %18 = load i32, ptr %4, align 4
  %19 = icmp eq i32 %18, 2
  br i1 %19, label %20, label %26

20:                                               ; preds = %14
  %21 = load ptr, ptr %3, align 8
  %22 = getelementptr inbounds nuw %struct.ParallelApplyWorkerShared, ptr %21, i32 0, i32 8
  %23 = load ptr, ptr @MyLogicalRepWorker, align 8
  %24 = getelementptr inbounds nuw %struct.LogicalRepWorker, ptr %23, i32 0, i32 12
  %25 = load ptr, ptr %24, align 8
  call void @llvm.memcpy.p0.p0.i64(ptr align 4 %22, ptr align 4 %25, i64 44, i1 false)
  br label %26

26:                                               ; preds = %20, %14
  br label %27

27:                                               ; preds = %26
  call void asm sideeffect "", "~{memory},~{dirflag},~{fpsr},~{flags}"() #9, !srcloc !14
  %28 = load ptr, ptr %3, align 8
  %29 = getelementptr inbounds nuw %struct.ParallelApplyWorkerShared, ptr %28, i32 0, i32 0
  store i8 0, ptr %29, align 8
  br label %30

30:                                               ; preds = %27
  ret void
}

; Function Attrs: nounwind uwtable
define dso_local void @pa_lock_stream(i32 noundef %0, i32 noundef %1) #0 {
  %3 = alloca i32, align 4
  %4 = alloca i32, align 4
  store i32 %0, ptr %3, align 4
  store i32 %1, ptr %4, align 4
  %5 = load ptr, ptr @MyLogicalRepWorker, align 8
  %6 = getelementptr inbounds nuw %struct.LogicalRepWorker, ptr %5, i32 0, i32 7
  %7 = load i32, ptr %6, align 8
  %8 = load i32, ptr %3, align 4
  %9 = load i32, ptr %4, align 4
  call void @LockApplyTransactionForSession(i32 noundef %7, i32 noundef %8, i16 noundef zeroext 0, i32 noundef %9)
  ret void
}

; Function Attrs: nounwind uwtable
define dso_local void @pa_switch_to_partial_serialize(ptr noundef %0, i1 noundef zeroext %1) #0 {
  %3 = alloca ptr, align 8
  %4 = alloca i8, align 1
  store ptr %0, ptr %3, align 8
  %5 = zext i1 %1 to i8
  store i8 %5, ptr %4, align 1
  br label %6

6:                                                ; preds = %2
  br i1 false, label %7, label %9

7:                                                ; preds = %6
  %8 = call zeroext i1 @errstart_cold(i32 noundef 15, ptr noundef null) #10
  br i1 %8, label %11, label %18

9:                                                ; preds = %6
  %10 = call zeroext i1 @errstart(i32 noundef 15, ptr noundef null)
  br i1 %10, label %11, label %18

11:                                               ; preds = %9, %7
  %12 = load ptr, ptr %3, align 8
  %13 = getelementptr inbounds nuw %struct.ParallelApplyWorkerInfo, ptr %12, i32 0, i32 5
  %14 = load ptr, ptr %13, align 8
  %15 = getelementptr inbounds nuw %struct.ParallelApplyWorkerShared, ptr %14, i32 0, i32 1
  %16 = load i32, ptr %15, align 4
  %17 = call i32 (ptr, ...) @errmsg(ptr noundef @.str.8, i32 noundef %16)
  call void @errfinish(ptr noundef @.str.2, i32 noundef 1216, ptr noundef @__func__.pa_switch_to_partial_serialize)
  br label %18

18:                                               ; preds = %11, %9, %7
  br label %19

19:                                               ; preds = %18
  %20 = load ptr, ptr %3, align 8
  %21 = getelementptr inbounds nuw %struct.ParallelApplyWorkerInfo, ptr %20, i32 0, i32 3
  store i8 1, ptr %21, align 8
  %22 = load ptr, ptr %3, align 8
  %23 = getelementptr inbounds nuw %struct.ParallelApplyWorkerInfo, ptr %22, i32 0, i32 5
  %24 = load ptr, ptr %23, align 8
  %25 = getelementptr inbounds nuw %struct.ParallelApplyWorkerShared, ptr %24, i32 0, i32 1
  %26 = load i32, ptr %25, align 4
  call void @stream_start_internal(i32 noundef %26, i1 noundef zeroext true)
  %27 = load i8, ptr %4, align 1, !range !6, !noundef !7
  %28 = trunc i8 %27 to i1
  br i1 %28, label %35, label %29

29:                                               ; preds = %19
  %30 = load ptr, ptr %3, align 8
  %31 = getelementptr inbounds nuw %struct.ParallelApplyWorkerInfo, ptr %30, i32 0, i32 5
  %32 = load ptr, ptr %31, align 8
  %33 = getelementptr inbounds nuw %struct.ParallelApplyWorkerShared, ptr %32, i32 0, i32 1
  %34 = load i32, ptr %33, align 4
  call void @pa_lock_stream(i32 noundef %34, i32 noundef 8)
  br label %35

35:                                               ; preds = %29, %19
  %36 = load ptr, ptr %3, align 8
  %37 = getelementptr inbounds nuw %struct.ParallelApplyWorkerInfo, ptr %36, i32 0, i32 5
  %38 = load ptr, ptr %37, align 8
  call void @pa_set_fileset_state(ptr noundef %38, i32 noundef 1)
  ret void
}