; Function Attrs: nounwind uwtable
define dso_local void @pa_switch_to_partial_serialize(ptr noundef captures(none) initializes((24, 25)) %0, i1 noundef zeroext %1) local_unnamed_addr #0 {
  %3 = tail call zeroext i1 @errstart(i32 noundef 15, ptr noundef null) #10
  br i1 %3, label %4, label %10

4:                                                ; preds = %2
  %5 = getelementptr inbounds nuw i8, ptr %0, i64 32
  %6 = load ptr, ptr %5, align 8
  %7 = getelementptr inbounds nuw i8, ptr %6, i64 4
  %8 = load i32, ptr %7, align 4
  %9 = tail call i32 (ptr, ...) @errmsg(ptr noundef nonnull @.str.8, i32 noundef %8) #10
  tail call void @errfinish(ptr noundef nonnull @.str.2, i32 noundef 1216, ptr noundef nonnull @__func__.pa_switch_to_partial_serialize) #10
  br label %10

10:                                               ; preds = %2, %4
  %11 = getelementptr inbounds nuw i8, ptr %0, i64 24
  store i8 1, ptr %11, align 8
  %12 = getelementptr inbounds nuw i8, ptr %0, i64 32
  %13 = load ptr, ptr %12, align 8
  %14 = getelementptr inbounds nuw i8, ptr %13, i64 4
  %15 = load i32, ptr %14, align 4
  tail call void @stream_start_internal(i32 noundef %15, i1 noundef zeroext true) #10
  br i1 %1, label %23, label %16

16:                                               ; preds = %10
  %17 = load ptr, ptr %12, align 8
  %18 = getelementptr inbounds nuw i8, ptr %17, i64 4
  %19 = load i32, ptr %18, align 4
  %20 = load ptr, ptr @MyLogicalRepWorker, align 8
  %21 = getelementptr inbounds nuw i8, ptr %20, i64 40
  %22 = load i32, ptr %21, align 8
  tail call void @LockApplyTransactionForSession(i32 noundef %22, i32 noundef %19, i16 noundef zeroext 0, i32 noundef 8) #10
  br label %23

23:                                               ; preds = %16, %10
  %24 = load ptr, ptr %12, align 8
  %25 = tail call i8 asm sideeffect "\09lock\09\09\09\0A\09xchgb\09$0,$1\09\0A", "=q,=*m,0,*m,~{memory},~{cc},~{dirflag},~{fpsr},~{flags}"(ptr elementtype(i8) %24, i8 1, ptr elementtype(i8) %24) #10, !srcloc !7
  %.not.i = icmp eq i8 %25, 0
  br i1 %.not.i, label %pa_set_fileset_state.exit, label %26

26:                                               ; preds = %23
  %27 = tail call i32 @s_lock(ptr noundef %24, ptr noundef nonnull @.str.2, i32 noundef 1501, ptr noundef nonnull @__func__.pa_set_fileset_state) #10
  br label %pa_set_fileset_state.exit

pa_set_fileset_state.exit:                        ; preds = %23, %26
  %28 = getelementptr inbounds nuw i8, ptr %24, i64 32
  store i32 1, ptr %28, align 8
  tail call void asm sideeffect "", "~{memory},~{dirflag},~{fpsr},~{flags}"() #10, !srcloc !12
  store i8 0, ptr %24, align 8
  ret void
}